; Function Attrs: noinline nounwind uwtable
define internal fastcc void @mi_free_generic_mt(ptr noundef %0, ptr noundef %1, ptr noundef %2) unnamed_addr #7 {
  %4 = getelementptr inbounds nuw i8, ptr %0, i64 48
  %5 = load ptr, ptr %4, align 8, !tbaa !30
  %6 = ptrtoint ptr %2 to i64
  %7 = ptrtoint ptr %5 to i64
  %8 = sub i64 %6, %7
  %9 = getelementptr inbounds nuw i8, ptr %0, i64 34
  %10 = load i8, ptr %9, align 2, !tbaa !31
  %.not.i = icmp eq i8 %10, 0
  br i1 %.not.i, label %15, label %11, !prof !18

11:                                               ; preds = %3
  %12 = zext nneg i8 %10 to i64
  %notmask.i = shl nsw i64 -1, %12
  %13 = xor i64 %notmask.i, -1
  %14 = and i64 %8, %13
  br label %_mi_page_ptr_unalign.exit

15:                                               ; preds = %3
  %16 = getelementptr i8, ptr %0, i64 40
  %.val.i = load i64, ptr %16, align 8, !tbaa !22
  %17 = urem i64 %8, %.val.i
  br label %_mi_page_ptr_unalign.exit

_mi_page_ptr_unalign.exit:                        ; preds = %11, %15
  %.0.i = phi i64 [ %14, %11 ], [ %17, %15 ]
  %18 = sub i64 %6, %.0.i
  %19 = inttoptr i64 %18 to ptr
  tail call fastcc void @mi_free_block_mt(ptr noundef nonnull %0, ptr noundef %1, ptr noundef %19) #20
  ret void
}